; Function Attrs: mustprogress nofree norecurse nosync nounwind willreturn memory(argmem: read) uwtable
define hidden noundef zeroext i1 @_ZNK24fixed_bit_vector_manager6equalsERK16fixed_bit_vectorS2_(ptr noundef nonnull readonly align 8 captures(none) dereferenceable(540) %0, ptr noundef nonnull readonly align 4 captures(address) dereferenceable(4) %1, ptr noundef nonnull readonly align 4 captures(address) dereferenceable(4) %2) local_unnamed_addr #8 align 2 {
  %4 = icmp eq ptr %1, %2
  br i1 %4, label %.loopexit, label %5

5:                                                ; preds = %3
  %6 = getelementptr inbounds nuw i8, ptr %0, i64 528
  %7 = load i32, ptr %6, align 8, !tbaa !16
  %8 = icmp eq i32 %7, 0
  br i1 %8, label %.loopexit, label %.preheader

.preheader:                                       ; preds = %5
  %9 = add i32 %7, -1
  %.not1923.not = icmp eq i32 %9, 0
  br i1 %.not1923.not, label %_ZNK24fixed_bit_vector_manager9last_wordERK16fixed_bit_vector.exit21, label %.lr.ph.preheader

.lr.ph.preheader:                                 ; preds = %.preheader
  %wide.trip.count = zext i32 %9 to i64
  br label %.lr.ph

10:                                               ; preds = %.lr.ph
  %indvars.iv.next = add nuw nsw i64 %indvars.iv, 1
  %exitcond.not = icmp eq i64 %indvars.iv.next, %wide.trip.count
  br i1 %exitcond.not, label %_ZNK24fixed_bit_vector_manager9last_wordERK16fixed_bit_vector.exit21, label %.lr.ph, !llvm.loop !22

.lr.ph:                                           ; preds = %.lr.ph.preheader, %10
  %indvars.iv = phi i64 [ 0, %.lr.ph.preheader ], [ %indvars.iv.next, %10 ]
  %11 = getelementptr inbounds nuw [1 x i32], ptr %1, i64 0, i64 %indvars.iv
  %12 = load i32, ptr %11, align 4, !tbaa !3
  %13 = getelementptr inbounds nuw [1 x i32], ptr %2, i64 0, i64 %indvars.iv
  %14 = load i32, ptr %13, align 4, !tbaa !3
  %.not = icmp eq i32 %12, %14
  br i1 %.not, label %10, label %.loopexit

_ZNK24fixed_bit_vector_manager9last_wordERK16fixed_bit_vector.exit21: ; preds = %10, %.preheader
  %.pre-phi = phi i64 [ 0, %.preheader ], [ %wide.trip.count, %10 ]
  %15 = getelementptr inbounds nuw [1 x i32], ptr %1, i64 0, i64 %.pre-phi
  %16 = load i32, ptr %15, align 4, !tbaa !3
  %17 = getelementptr inbounds nuw i8, ptr %0, i64 532
  %18 = load i32, ptr %17, align 4, !tbaa !18
  %19 = getelementptr inbounds nuw [1 x i32], ptr %2, i64 0, i64 %.pre-phi
  %20 = load i32, ptr %19, align 4, !tbaa !3
  %21 = xor i32 %20, %16
  %22 = and i32 %21, %18
  %23 = icmp eq i32 %22, 0
  br label %.loopexit

.loopexit:                                        ; preds = %.lr.ph, %_ZNK24fixed_bit_vector_manager9last_wordERK16fixed_bit_vector.exit21, %5, %3
  %.015 = phi i1 [ true, %3 ], [ %23, %_ZNK24fixed_bit_vector_manager9last_wordERK16fixed_bit_vector.exit21 ], [ true, %5 ], [ false, %.lr.ph ]
  ret i1 %.015
}